
/home/nikola/Documents/GitHub/uberClock/3.miniac/3.build/sw_build/main.elf:     file format elf32-littleriscv


Disassembly of section .text:

00000000 <_boot_crt>:
   0:	00000517          	auipc	a0,0x0
   4:	2a450513          	addi	a0,a0,676 # 2a4 <_idata_start>
   8:	10000597          	auipc	a1,0x10000
   c:	ff858593          	addi	a1,a1,-8 # 10000000 <samples>
  10:	10000617          	auipc	a2,0x10000
  14:	ff060613          	addi	a2,a2,-16 # 10000000 <samples>
  18:	00c5dc63          	bge	a1,a2,30 <end_copy_idata>

0000001c <loop_copy_idata>:
  1c:	00052683          	lw	a3,0(a0)
  20:	00d5a023          	sw	a3,0(a1)
  24:	00450513          	addi	a0,a0,4
  28:	00458593          	addi	a1,a1,4
  2c:	fec5c8e3          	blt	a1,a2,1c <loop_copy_idata>

00000030 <end_copy_idata>:
  30:	10000517          	auipc	a0,0x10000
  34:	fd050513          	addi	a0,a0,-48 # 10000000 <samples>
  38:	10001597          	auipc	a1,0x10001
  3c:	7cc58593          	addi	a1,a1,1996 # 10001804 <_bss_end>
  40:	00b55863          	bge	a0,a1,50 <end_clear_bss>

00000044 <loop_clear_bss>:
  44:	00052023          	sw	zero,0(a0)
  48:	00450513          	addi	a0,a0,4
  4c:	feb54ce3          	blt	a0,a1,44 <loop_clear_bss>

00000050 <end_clear_bss>:
  50:	10008117          	auipc	sp,0x10008
  54:	fb010113          	addi	sp,sp,-80 # 10008000 <_stack_start>
  58:	10000197          	auipc	gp,0x10000
  5c:	7a818193          	addi	gp,gp,1960 # 10000800 <__global_pointer$>
  60:	00a54533          	xor	a0,a0,a0
  64:	00b5c5b3          	xor	a1,a1,a1
  68:	00c64633          	xor	a2,a2,a2
  6c:	080000ef          	jal	ec <main>

00000070 <loop_forever>:
  70:	0000006f          	j	70 <loop_forever>

00000074 <malloc>:
  74:	100026b7          	lui	a3,0x10002
  78:	8006a703          	lw	a4,-2048(a3) # 10001800 <heap_memory_used>
  7c:	100017b7          	lui	a5,0x10001
  80:	00078793          	mv	a5,a5
  84:	00f707b3          	add	a5,a4,a5
  88:	00a70733          	add	a4,a4,a0
  8c:	80e6a023          	sw	a4,-2048(a3)
  90:	000016b7          	lui	a3,0x1
  94:	80068693          	addi	a3,a3,-2048 # 800 <_HEAP_SIZE+0x400>
  98:	00e6d463          	bge	a3,a4,a0 <malloc+0x2c>
  9c:	00100073          	ebreak
  a0:	00078513          	mv	a0,a5
  a4:	00008067          	ret

000000a8 <memset>:
  a8:	0ff5f593          	zext.b	a1,a1
  ac:	00000793          	li	a5,0
  b0:	00c79463          	bne	a5,a2,b8 <memset+0x10>
  b4:	00008067          	ret
  b8:	00f50733          	add	a4,a0,a5
  bc:	00b70023          	sb	a1,0(a4)
  c0:	00178793          	addi	a5,a5,1 # 10001001 <heap_memory+0x1>
  c4:	fedff06f          	j	b0 <memset+0x8>

000000c8 <memcpy>:
  c8:	00000793          	li	a5,0
  cc:	00c79463          	bne	a5,a2,d4 <memcpy+0xc>
  d0:	00008067          	ret
  d4:	00f58733          	add	a4,a1,a5
  d8:	00074683          	lbu	a3,0(a4)
  dc:	00f50733          	add	a4,a0,a5
  e0:	00178793          	addi	a5,a5,1
  e4:	00d70023          	sb	a3,0(a4)
  e8:	fe5ff06f          	j	cc <memcpy+0x4>

000000ec <main>:
  ec:	ff010113          	addi	sp,sp,-16
  f0:	01800513          	li	a0,24
  f4:	00112623          	sw	ra,12(sp)
  f8:	00812423          	sw	s0,8(sp)
  fc:	00912223          	sw	s1,4(sp)
 100:	f75ff0ef          	jal	74 <malloc>
 104:	00050413          	mv	s0,a0
 108:	01000513          	li	a0,16
 10c:	f69ff0ef          	jal	74 <malloc>
 110:	00050493          	mv	s1,a0
 114:	00400513          	li	a0,4
 118:	f5dff0ef          	jal	74 <malloc>
 11c:	200007b7          	lui	a5,0x20000
 120:	00f52023          	sw	a5,0(a0)
 124:	00a4a023          	sw	a0,0(s1)
 128:	00400513          	li	a0,4
 12c:	f49ff0ef          	jal	74 <malloc>
 130:	200007b7          	lui	a5,0x20000
 134:	00478793          	addi	a5,a5,4 # 20000004 <_stack_start+0xfff8004>
 138:	00f52023          	sw	a5,0(a0)
 13c:	00a4a223          	sw	a0,4(s1)
 140:	00400513          	li	a0,4
 144:	f31ff0ef          	jal	74 <malloc>
 148:	200007b7          	lui	a5,0x20000
 14c:	00878793          	addi	a5,a5,8 # 20000008 <_stack_start+0xfff8008>
 150:	00f52023          	sw	a5,0(a0)
 154:	00a4a423          	sw	a0,8(s1)
 158:	00400513          	li	a0,4
 15c:	f19ff0ef          	jal	74 <malloc>
 160:	200007b7          	lui	a5,0x20000
 164:	00c78793          	addi	a5,a5,12 # 2000000c <_stack_start+0xfff800c>
 168:	00f52023          	sw	a5,0(a0)
 16c:	00a4a623          	sw	a0,12(s1)
 170:	00942023          	sw	s1,0(s0)
 174:	00400513          	li	a0,4
 178:	efdff0ef          	jal	74 <malloc>
 17c:	200007b7          	lui	a5,0x20000
 180:	01078793          	addi	a5,a5,16 # 20000010 <_stack_start+0xfff8010>
 184:	00f52023          	sw	a5,0(a0)
 188:	00a42223          	sw	a0,4(s0)
 18c:	00400513          	li	a0,4
 190:	ee5ff0ef          	jal	74 <malloc>
 194:	200007b7          	lui	a5,0x20000
 198:	01478793          	addi	a5,a5,20 # 20000014 <_stack_start+0xfff8014>
 19c:	00f52023          	sw	a5,0(a0)
 1a0:	00a42423          	sw	a0,8(s0)
 1a4:	00400513          	li	a0,4
 1a8:	ecdff0ef          	jal	74 <malloc>
 1ac:	200007b7          	lui	a5,0x20000
 1b0:	01878793          	addi	a5,a5,24 # 20000018 <_stack_start+0xfff8018>
 1b4:	00f52023          	sw	a5,0(a0)
 1b8:	00a42623          	sw	a0,12(s0)
 1bc:	00400513          	li	a0,4
 1c0:	eb5ff0ef          	jal	74 <malloc>
 1c4:	200007b7          	lui	a5,0x20000
 1c8:	01c78793          	addi	a5,a5,28 # 2000001c <_stack_start+0xfff801c>
 1cc:	00f52023          	sw	a5,0(a0)
 1d0:	00a42823          	sw	a0,16(s0)
 1d4:	00400513          	li	a0,4
 1d8:	e9dff0ef          	jal	74 <malloc>
 1dc:	29400793          	li	a5,660
 1e0:	0007c703          	lbu	a4,0(a5)
 1e4:	08071263          	bnez	a4,268 <_STACK_SIZE+0x68>
 1e8:	00001637          	lui	a2,0x1
 1ec:	000045b7          	lui	a1,0x4
 1f0:	10000537          	lui	a0,0x10000
 1f4:	fff60613          	addi	a2,a2,-1 # fff <_HEAP_SIZE+0xbff>
 1f8:	fff58593          	addi	a1,a1,-1 # 3fff <_HEAP_SIZE+0x3bff>
 1fc:	ffffc8b7          	lui	a7,0xffffc
 200:	00050513          	mv	a0,a0
 204:	40000313          	li	t1,1024
 208:	01042683          	lw	a3,16(s0)
 20c:	00c42783          	lw	a5,12(s0)
 210:	0006a803          	lw	a6,0(a3)
 214:	0007a783          	lw	a5,0(a5)
 218:	00082683          	lw	a3,0(a6)
 21c:	0007a783          	lw	a5,0(a5)
 220:	0116f6b3          	and	a3,a3,a7
 224:	00c7f7b3          	and	a5,a5,a2
 228:	01079793          	slli	a5,a5,0x10
 22c:	0107d793          	srli	a5,a5,0x10
 230:	00279793          	slli	a5,a5,0x2
 234:	00b7f7b3          	and	a5,a5,a1
 238:	00f6e7b3          	or	a5,a3,a5
 23c:	00f82023          	sw	a5,0(a6)
 240:	00c42783          	lw	a5,12(s0)
 244:	0007a783          	lw	a5,0(a5)
 248:	0007a683          	lw	a3,0(a5)
 24c:	00271793          	slli	a5,a4,0x2
 250:	00f507b3          	add	a5,a0,a5
 254:	00d7a023          	sw	a3,0(a5)
 258:	00170713          	addi	a4,a4,1
 25c:	fa6716e3          	bne	a4,t1,208 <_STACK_SIZE+0x8>
 260:	00000713          	li	a4,0
 264:	fa5ff06f          	j	208 <_STACK_SIZE+0x8>
 268:	00178793          	addi	a5,a5,1
 26c:	00042683          	lw	a3,0(s0)
 270:	0086a683          	lw	a3,8(a3)
 274:	0006a683          	lw	a3,0(a3)
 278:	0006a683          	lw	a3,0(a3)
 27c:	fe06c8e3          	bltz	a3,26c <_STACK_SIZE+0x6c>
 280:	00042683          	lw	a3,0(s0)
 284:	0086a683          	lw	a3,8(a3)
 288:	0006a683          	lw	a3,0(a3)
 28c:	00e68023          	sb	a4,0(a3)
 290:	f51ff06f          	j	1e0 <main+0xf4>
 294:	6548                	.insn	2, 0x6548
 296:	6c6c                	.insn	2, 0x6c6c
 298:	6f77206f          	j	7318e <_HEAP_SIZE+0x72d8e>
 29c:	6c72                	.insn	2, 0x6c72
 29e:	2164                	.insn	2, 0x2164
 2a0:	0a0d                	.insn	2, 0x0a0d
	...
