
/home/minela/Projects/Work/uberClock/3.miniac/3.build/sw_build/main.elf:     file format elf32-littleriscv


Disassembly of section .text:

00000000 <_boot_crt>:
   0:	00000517          	auipc	a0,0x0
   4:	71850513          	addi	a0,a0,1816 # 718 <_idata_start>
   8:	10000597          	auipc	a1,0x10000
   c:	ff858593          	addi	a1,a1,-8 # 10000000 <heap_memory>
  10:	10000617          	auipc	a2,0x10000
  14:	ff060613          	addi	a2,a2,-16 # 10000000 <heap_memory>
  18:	00c5dc63          	bge	a1,a2,30 <end_copy_idata>

0000001c <loop_copy_idata>:
  1c:	00052683          	lw	a3,0(a0)
  20:	00d5a023          	sw	a3,0(a1)
  24:	00450513          	addi	a0,a0,4
  28:	00458593          	addi	a1,a1,4
  2c:	fec5c8e3          	blt	a1,a2,1c <loop_copy_idata>

00000030 <end_copy_idata>:
  30:	10000517          	auipc	a0,0x10000
  34:	fd050513          	addi	a0,a0,-48 # 10000000 <heap_memory>
  38:	10000597          	auipc	a1,0x10000
  3c:	7cc58593          	addi	a1,a1,1996 # 10000804 <_bss_end>
  40:	00b55863          	bge	a0,a1,50 <end_clear_bss>

00000044 <loop_clear_bss>:
  44:	00052023          	sw	zero,0(a0)
  48:	00450513          	addi	a0,a0,4
  4c:	feb54ce3          	blt	a0,a1,44 <loop_clear_bss>

00000050 <end_clear_bss>:
  50:	10008117          	auipc	sp,0x10008
  54:	fb010113          	addi	sp,sp,-80 # 10008000 <_stack_start>
  58:	10000197          	auipc	gp,0x10000
  5c:	7a818193          	addi	gp,gp,1960 # 10000800 <heap_memory_used>
  60:	00a54533          	xor	a0,a0,a0
  64:	00b5c5b3          	xor	a1,a1,a1
  68:	00c64633          	xor	a2,a2,a2
  6c:	0dc000ef          	jal	148 <main>

00000070 <loop_forever>:
  70:	0000006f          	j	70 <loop_forever>

00000074 <uart_send_char>:
  74:	00052783          	lw	a5,0(a0)
  78:	0087a783          	lw	a5,8(a5)
  7c:	0007a783          	lw	a5,0(a5)
  80:	0007a783          	lw	a5,0(a5)
  84:	fe07c8e3          	bltz	a5,74 <uart_send_char>
  88:	00052783          	lw	a5,0(a0)
  8c:	0087a783          	lw	a5,8(a5)
  90:	0007a783          	lw	a5,0(a5)
  94:	00b78023          	sb	a1,0(a5)
  98:	00008067          	ret

0000009c <uart_send>:
  9c:	fe010113          	addi	sp,sp,-32
  a0:	00812c23          	sw	s0,24(sp)
  a4:	00112e23          	sw	ra,28(sp)
  a8:	00058413          	mv	s0,a1
  ac:	00044583          	lbu	a1,0(s0)
  b0:	00059a63          	bnez	a1,c4 <uart_send+0x28>
  b4:	01c12083          	lw	ra,28(sp)
  b8:	01812403          	lw	s0,24(sp)
  bc:	02010113          	addi	sp,sp,32
  c0:	00008067          	ret
  c4:	00a12623          	sw	a0,12(sp)
  c8:	fadff0ef          	jal	74 <uart_send_char>
  cc:	00c12503          	lw	a0,12(sp)
  d0:	00140413          	addi	s0,s0,1
  d4:	fd9ff06f          	j	ac <uart_send+0x10>

000000d8 <malloc>:
  d8:	0001a703          	lw	a4,0(gp) # 10000800 <heap_memory_used>
  dc:	100007b7          	lui	a5,0x10000
  e0:	00078793          	mv	a5,a5
  e4:	00f707b3          	add	a5,a4,a5
  e8:	00a70733          	add	a4,a4,a0
  ec:	00e1a023          	sw	a4,0(gp) # 10000800 <heap_memory_used>
  f0:	000016b7          	lui	a3,0x1
  f4:	80068693          	addi	a3,a3,-2048 # 800 <_idata_start+0xe8>
  f8:	00e6d463          	bge	a3,a4,100 <malloc+0x28>
  fc:	00100073          	ebreak
 100:	00078513          	mv	a0,a5
 104:	00008067          	ret

00000108 <memset>:
 108:	00000793          	li	a5,0
 10c:	00c79463          	bne	a5,a2,114 <memset+0xc>
 110:	00008067          	ret
 114:	00f50733          	add	a4,a0,a5
 118:	00b70023          	sb	a1,0(a4)
 11c:	00178793          	addi	a5,a5,1 # 10000001 <heap_memory+0x1>
 120:	fedff06f          	j	10c <memset+0x4>

00000124 <memcpy>:
 124:	00000793          	li	a5,0
 128:	00c79463          	bne	a5,a2,130 <memcpy+0xc>
 12c:	00008067          	ret
 130:	00f58733          	add	a4,a1,a5
 134:	00074683          	lbu	a3,0(a4)
 138:	00f50733          	add	a4,a0,a5
 13c:	00178793          	addi	a5,a5,1
 140:	00d70023          	sb	a3,0(a4)
 144:	fe5ff06f          	j	128 <memcpy+0x4>

00000148 <main>:
 148:	fb010113          	addi	sp,sp,-80
 14c:	01800513          	li	a0,24
 150:	04112623          	sw	ra,76(sp)
 154:	04812423          	sw	s0,72(sp)
 158:	04912223          	sw	s1,68(sp)
 15c:	05212023          	sw	s2,64(sp)
 160:	03312e23          	sw	s3,60(sp)
 164:	03412c23          	sw	s4,56(sp)
 168:	03512a23          	sw	s5,52(sp)
 16c:	03612823          	sw	s6,48(sp)
 170:	03712623          	sw	s7,44(sp)
 174:	03812423          	sw	s8,40(sp)
 178:	03912223          	sw	s9,36(sp)
 17c:	03a12023          	sw	s10,32(sp)
 180:	01b12e23          	sw	s11,28(sp)
 184:	f55ff0ef          	jal	d8 <malloc>
 188:	00050413          	mv	s0,a0
 18c:	01000513          	li	a0,16
 190:	f49ff0ef          	jal	d8 <malloc>
 194:	00050493          	mv	s1,a0
 198:	00400513          	li	a0,4
 19c:	f3dff0ef          	jal	d8 <malloc>
 1a0:	200007b7          	lui	a5,0x20000
 1a4:	00f52023          	sw	a5,0(a0)
 1a8:	00a4a023          	sw	a0,0(s1)
 1ac:	00400513          	li	a0,4
 1b0:	f29ff0ef          	jal	d8 <malloc>
 1b4:	200007b7          	lui	a5,0x20000
 1b8:	00478793          	addi	a5,a5,4 # 20000004 <_stack_start+0xfff8004>
 1bc:	00f52023          	sw	a5,0(a0)
 1c0:	00a4a223          	sw	a0,4(s1)
 1c4:	00400513          	li	a0,4
 1c8:	f11ff0ef          	jal	d8 <malloc>
 1cc:	200007b7          	lui	a5,0x20000
 1d0:	00878793          	addi	a5,a5,8 # 20000008 <_stack_start+0xfff8008>
 1d4:	00f52023          	sw	a5,0(a0)
 1d8:	00a4a423          	sw	a0,8(s1)
 1dc:	00400513          	li	a0,4
 1e0:	ef9ff0ef          	jal	d8 <malloc>
 1e4:	200007b7          	lui	a5,0x20000
 1e8:	00c78793          	addi	a5,a5,12 # 2000000c <_stack_start+0xfff800c>
 1ec:	00f52023          	sw	a5,0(a0)
 1f0:	00a4a623          	sw	a0,12(s1)
 1f4:	00942023          	sw	s1,0(s0)
 1f8:	00400513          	li	a0,4
 1fc:	eddff0ef          	jal	d8 <malloc>
 200:	200007b7          	lui	a5,0x20000
 204:	01078793          	addi	a5,a5,16 # 20000010 <_stack_start+0xfff8010>
 208:	00f52023          	sw	a5,0(a0)
 20c:	00a42223          	sw	a0,4(s0)
 210:	00400513          	li	a0,4
 214:	ec5ff0ef          	jal	d8 <malloc>
 218:	200007b7          	lui	a5,0x20000
 21c:	01478793          	addi	a5,a5,20 # 20000014 <_stack_start+0xfff8014>
 220:	00f52023          	sw	a5,0(a0)
 224:	00a42423          	sw	a0,8(s0)
 228:	00400513          	li	a0,4
 22c:	eadff0ef          	jal	d8 <malloc>
 230:	200007b7          	lui	a5,0x20000
 234:	01878793          	addi	a5,a5,24 # 20000018 <_stack_start+0xfff8018>
 238:	00f52023          	sw	a5,0(a0)
 23c:	00a42623          	sw	a0,12(s0)
 240:	00400513          	li	a0,4
 244:	e95ff0ef          	jal	d8 <malloc>
 248:	200007b7          	lui	a5,0x20000
 24c:	01c78793          	addi	a5,a5,28 # 2000001c <_stack_start+0xfff801c>
 250:	00f52023          	sw	a5,0(a0)
 254:	00a42823          	sw	a0,16(s0)
 258:	00400513          	li	a0,4
 25c:	e7dff0ef          	jal	d8 <malloc>
 260:	200007b7          	lui	a5,0x20000
 264:	02078793          	addi	a5,a5,32 # 20000020 <_stack_start+0xfff8020>
 268:	00f52023          	sw	a5,0(a0)
 26c:	00442783          	lw	a5,4(s0)
 270:	00a42a23          	sw	a0,20(s0)
 274:	0007a703          	lw	a4,0(a5)
 278:	56800593          	li	a1,1384
 27c:	00040513          	mv	a0,s0
 280:	00072783          	lw	a5,0(a4)
 284:	100019b7          	lui	s3,0x10001
 288:	2007e793          	ori	a5,a5,512
 28c:	00f72023          	sw	a5,0(a4)
 290:	e0dff0ef          	jal	9c <uart_send>
 294:	59800593          	li	a1,1432
 298:	00040513          	mv	a0,s0
 29c:	e01ff0ef          	jal	9c <uart_send>
 2a0:	01c00913          	li	s2,28
 2a4:	70400493          	li	s1,1796
 2a8:	80098993          	addi	s3,s3,-2048 # 10000800 <heap_memory_used>
 2ac:	ffc00a13          	li	s4,-4
 2b0:	0129d7b3          	srl	a5,s3,s2
 2b4:	00f7f793          	andi	a5,a5,15
 2b8:	00f487b3          	add	a5,s1,a5
 2bc:	0007c583          	lbu	a1,0(a5)
 2c0:	00040513          	mv	a0,s0
 2c4:	ffc90913          	addi	s2,s2,-4
 2c8:	dadff0ef          	jal	74 <uart_send_char>
 2cc:	ff4912e3          	bne	s2,s4,2b0 <_STACK_SIZE+0xb0>
 2d0:	5ac00593          	li	a1,1452
 2d4:	00040513          	mv	a0,s0
 2d8:	dc5ff0ef          	jal	9c <uart_send>
 2dc:	00400a13          	li	s4,4
 2e0:	3e800913          	li	s2,1000
 2e4:	000019b7          	lui	s3,0x1
 2e8:	00090593          	mv	a1,s2
 2ec:	00098513          	mv	a0,s3
 2f0:	1cc000ef          	jal	4bc <__hidden___udivsi3>
 2f4:	03050593          	addi	a1,a0,48
 2f8:	0ff5f593          	zext.b	a1,a1
 2fc:	00040513          	mv	a0,s0
 300:	d75ff0ef          	jal	74 <uart_send_char>
 304:	00090593          	mv	a1,s2
 308:	00098513          	mv	a0,s3
 30c:	1f8000ef          	jal	504 <__umodsi3>
 310:	01051993          	slli	s3,a0,0x10
 314:	00a00593          	li	a1,10
 318:	00090513          	mv	a0,s2
 31c:	1a0000ef          	jal	4bc <__hidden___udivsi3>
 320:	01051913          	slli	s2,a0,0x10
 324:	fffa0a13          	addi	s4,s4,-1
 328:	0109d993          	srli	s3,s3,0x10
 32c:	01095913          	srli	s2,s2,0x10
 330:	fa0a1ce3          	bnez	s4,2e8 <_STACK_SIZE+0xe8>
 334:	5bc00593          	li	a1,1468
 338:	00040513          	mv	a0,s0
 33c:	d61ff0ef          	jal	9c <uart_send>
 340:	5c800593          	li	a1,1480
 344:	00040513          	mv	a0,s0
 348:	d55ff0ef          	jal	9c <uart_send>
 34c:	5f400d13          	li	s10,1524
 350:	60800d93          	li	s11,1544
 354:	61c00793          	li	a5,1564
 358:	00f12223          	sw	a5,4(sp)
 35c:	63c00793          	li	a5,1596
 360:	00f12423          	sw	a5,8(sp)
 364:	800009b7          	lui	s3,0x80000
 368:	65400793          	li	a5,1620
 36c:	fff98a13          	addi	s4,s3,-1 # 7fffffff <_stack_start+0x6fff7fff>
 370:	00f12623          	sw	a5,12(sp)
 374:	00100713          	li	a4,1
 378:	00442783          	lw	a5,4(s0)
 37c:	0007a783          	lw	a5,0(a5)
 380:	0007a783          	lw	a5,0(a5)
 384:	0017f793          	andi	a5,a5,1
 388:	fee798e3          	bne	a5,a4,378 <_STACK_SIZE+0x178>
 38c:	000d0593          	mv	a1,s10
 390:	00040513          	mv	a0,s0
 394:	d09ff0ef          	jal	9c <uart_send>
 398:	000d8593          	mv	a1,s11
 39c:	00040513          	mv	a0,s0
 3a0:	cfdff0ef          	jal	9c <uart_send>
 3a4:	00c42783          	lw	a5,12(s0)
 3a8:	00412583          	lw	a1,4(sp)
 3ac:	00040513          	mv	a0,s0
 3b0:	0007a703          	lw	a4,0(a5)
 3b4:	00072783          	lw	a5,0(a4)
 3b8:	0137e7b3          	or	a5,a5,s3
 3bc:	00f72023          	sw	a5,0(a4)
 3c0:	00c42783          	lw	a5,12(s0)
 3c4:	0007a703          	lw	a4,0(a5)
 3c8:	00072783          	lw	a5,0(a4)
 3cc:	0147f7b3          	and	a5,a5,s4
 3d0:	00f72023          	sw	a5,0(a4)
 3d4:	cc9ff0ef          	jal	9c <uart_send>
 3d8:	00812583          	lw	a1,8(sp)
 3dc:	00040513          	mv	a0,s0
 3e0:	cbdff0ef          	jal	9c <uart_send>
 3e4:	00c42783          	lw	a5,12(s0)
 3e8:	0007a783          	lw	a5,0(a5)
 3ec:	0007a783          	lw	a5,0(a5)
 3f0:	00179713          	slli	a4,a5,0x1
 3f4:	0a075863          	bgez	a4,4a4 <_HEAP_SIZE+0xa4>
 3f8:	00c12583          	lw	a1,12(sp)
 3fc:	00040513          	mv	a0,s0
 400:	10001b37          	lui	s6,0x10001
 404:	c99ff0ef          	jal	9c <uart_send>
 408:	68000593          	li	a1,1664
 40c:	00040513          	mv	a0,s0
 410:	c8dff0ef          	jal	9c <uart_send>
 414:	10005937          	lui	s2,0x10005
 418:	800b0b13          	addi	s6,s6,-2048 # 10000800 <heap_memory_used>
 41c:	ffc00a93          	li	s5,-4
 420:	59400c93          	li	s9,1428
 424:	80090913          	addi	s2,s2,-2048 # 10004800 <_heap_end+0x3bf0>
 428:	000b2c03          	lw	s8,0(s6)
 42c:	01c00b93          	li	s7,28
 430:	017c57b3          	srl	a5,s8,s7
 434:	00f7f793          	andi	a5,a5,15
 438:	00f487b3          	add	a5,s1,a5
 43c:	0007c583          	lbu	a1,0(a5)
 440:	00040513          	mv	a0,s0
 444:	ffcb8b93          	addi	s7,s7,-4
 448:	c2dff0ef          	jal	74 <uart_send_char>
 44c:	ff5b92e3          	bne	s7,s5,430 <_HEAP_SIZE+0x30>
 450:	000c8593          	mv	a1,s9
 454:	00040513          	mv	a0,s0
 458:	004b0b13          	addi	s6,s6,4
 45c:	c41ff0ef          	jal	9c <uart_send>
 460:	fd2b14e3          	bne	s6,s2,428 <_HEAP_SIZE+0x28>
 464:	6a000593          	li	a1,1696
 468:	00040513          	mv	a0,s0
 46c:	c31ff0ef          	jal	9c <uart_send>
 470:	6bc00593          	li	a1,1724
 474:	00040513          	mv	a0,s0
 478:	c25ff0ef          	jal	9c <uart_send>
 47c:	6d800593          	li	a1,1752
 480:	00040513          	mv	a0,s0
 484:	c19ff0ef          	jal	9c <uart_send>
 488:	00100713          	li	a4,1
 48c:	00442783          	lw	a5,4(s0)
 490:	0007a783          	lw	a5,0(a5)
 494:	0007a783          	lw	a5,0(a5)
 498:	0017f793          	andi	a5,a5,1
 49c:	ece79ce3          	bne	a5,a4,374 <_STACK_SIZE+0x174>
 4a0:	fedff06f          	j	48c <_HEAP_SIZE+0x8c>
 4a4:	02e00593          	li	a1,46
 4a8:	00040513          	mv	a0,s0
 4ac:	bc9ff0ef          	jal	74 <uart_send_char>
 4b0:	f35ff06f          	j	3e4 <_STACK_SIZE+0x1e4>

000004b4 <__divsi3>:
  li    t0, -1
  beq   a1, t0, .L20
#endif

FUNC_BEGIN (__divdi3)
  bltz  a0, .L10
 4b4:	06054063          	bltz	a0,514 <__umodsi3+0x10>
  bltz  a1, .L11
 4b8:	0605c663          	bltz	a1,524 <__umodsi3+0x20>

000004bc <__hidden___udivsi3>:
  /* Since the quotient is positive, fall into __udivdi3.  */

FUNC_BEGIN (__udivdi3)
  mv    a2, a1
 4bc:	00058613          	mv	a2,a1
  mv    a1, a0
 4c0:	00050593          	mv	a1,a0
  li    a0, -1
 4c4:	fff00513          	li	a0,-1
  beqz  a2, .L5
 4c8:	02060c63          	beqz	a2,500 <__hidden___udivsi3+0x44>
  li    a3, 1
 4cc:	00100693          	li	a3,1
  bgeu  a2, a1, .L2
 4d0:	00b67a63          	bgeu	a2,a1,4e4 <__hidden___udivsi3+0x28>
.L1:
  blez  a2, .L2
 4d4:	00c05863          	blez	a2,4e4 <__hidden___udivsi3+0x28>
  slli  a2, a2, 1
 4d8:	00161613          	slli	a2,a2,0x1
  slli  a3, a3, 1
 4dc:	00169693          	slli	a3,a3,0x1
  bgtu  a1, a2, .L1
 4e0:	feb66ae3          	bltu	a2,a1,4d4 <__hidden___udivsi3+0x18>
.L2:
  li    a0, 0
 4e4:	00000513          	li	a0,0
.L3:
  bltu  a1, a2, .L4
 4e8:	00c5e663          	bltu	a1,a2,4f4 <__hidden___udivsi3+0x38>
  sub   a1, a1, a2
 4ec:	40c585b3          	sub	a1,a1,a2
  or    a0, a0, a3
 4f0:	00d56533          	or	a0,a0,a3
.L4:
  srli  a3, a3, 1
 4f4:	0016d693          	srli	a3,a3,0x1
  srli  a2, a2, 1
 4f8:	00165613          	srli	a2,a2,0x1
  bnez  a3, .L3
 4fc:	fe0696e3          	bnez	a3,4e8 <__hidden___udivsi3+0x2c>
.L5:
  ret
 500:	00008067          	ret

00000504 <__umodsi3>:
FUNC_END (__udivdi3)
HIDDEN_DEF (__udivdi3)

FUNC_BEGIN (__umoddi3)
  /* Call __udivdi3(a0, a1), then return the remainder, which is in a1.  */
  move  t0, ra
 504:	00008293          	mv	t0,ra
  jal   HIDDEN_JUMPTARGET(__udivdi3)
 508:	fb5ff0ef          	jal	4bc <__hidden___udivsi3>
  move  a0, a1
 50c:	00058513          	mv	a0,a1
  jr    t0
 510:	00028067          	jr	t0
FUNC_END (__umoddi3)

  /* Handle negative arguments to __divdi3.  */
.L10:
  neg   a0, a0
 514:	40a00533          	neg	a0,a0
  /* Zero is handled as a negative so that the result will not be inverted.  */
  bgtz  a1, .L12     /* Compute __udivdi3(-a0, a1), then negate the result.  */
 518:	00b04863          	bgtz	a1,528 <__umodsi3+0x24>

  neg   a1, a1
 51c:	40b005b3          	neg	a1,a1
  j     HIDDEN_JUMPTARGET(__udivdi3)     /* Compute __udivdi3(-a0, -a1).  */
 520:	f9dff06f          	j	4bc <__hidden___udivsi3>
.L11:                /* Compute __udivdi3(a0, -a1), then negate the result.  */
  neg   a1, a1
 524:	40b005b3          	neg	a1,a1
.L12:
  move  t0, ra
 528:	00008293          	mv	t0,ra
  jal   HIDDEN_JUMPTARGET(__udivdi3)
 52c:	f91ff0ef          	jal	4bc <__hidden___udivsi3>
  neg   a0, a0
 530:	40a00533          	neg	a0,a0
  jr    t0
 534:	00028067          	jr	t0

00000538 <__modsi3>:
FUNC_END (__divdi3)

FUNC_BEGIN (__moddi3)
  move   t0, ra
 538:	00008293          	mv	t0,ra
  bltz   a1, .L31
 53c:	0005ca63          	bltz	a1,550 <__modsi3+0x18>
  bltz   a0, .L32
 540:	00054c63          	bltz	a0,558 <__modsi3+0x20>
.L30:
  jal    HIDDEN_JUMPTARGET(__udivdi3)    /* The dividend is not negative.  */
 544:	f79ff0ef          	jal	4bc <__hidden___udivsi3>
  move   a0, a1
 548:	00058513          	mv	a0,a1
  jr     t0
 54c:	00028067          	jr	t0
.L31:
  neg    a1, a1
 550:	40b005b3          	neg	a1,a1
  bgez   a0, .L30
 554:	fe0558e3          	bgez	a0,544 <__modsi3+0xc>
.L32:
  neg    a0, a0
 558:	40a00533          	neg	a0,a0
  jal    HIDDEN_JUMPTARGET(__udivdi3)    /* The dividend is hella negative.  */
 55c:	f61ff0ef          	jal	4bc <__hidden___udivsi3>
  neg    a0, a1
 560:	40b00533          	neg	a0,a1
  jr     t0
 564:	00028067          	jr	t0
 568:	2d2d                	.insn	2, 0x2d2d
 56a:	202d                	.insn	2, 0x202d
 56c:	4952                	.insn	2, 0x4952
 56e:	562d4353          	.insn	4, 0x562d4353
 572:	4120                	.insn	2, 0x4120
 574:	4344                	.insn	2, 0x4344
 576:	5320                	.insn	2, 0x5320
 578:	616e                	.insn	2, 0x616e
 57a:	7370                	.insn	2, 0x7370
 57c:	6f68                	.insn	2, 0x6f68
 57e:	2074                	.insn	2, 0x2074
 580:	6341                	.insn	2, 0x6341
 582:	7571                	.insn	2, 0x7571
 584:	7369                	.insn	2, 0x7369
 586:	7469                	.insn	2, 0x7469
 588:	6f69                	.insn	2, 0x6f69
 58a:	206e                	.insn	2, 0x206e
 58c:	6544                	.insn	2, 0x6544
 58e:	6f6d                	.insn	2, 0x6f6d
 590:	2d20                	.insn	2, 0x2d20
 592:	2d2d                	.insn	2, 0x2d2d
 594:	0a0d                	.insn	2, 0x0a0d
 596:	0000                	.insn	2, 0x0000
 598:	7542                	.insn	2, 0x7542
 59a:	6666                	.insn	2, 0x6666
 59c:	7265                	.insn	2, 0x7265
 59e:	6120                	.insn	2, 0x6120
 5a0:	7264                	.insn	2, 0x7264
 5a2:	7365                	.insn	2, 0x7365
 5a4:	3a61                	.insn	2, 0x3a61
 5a6:	3020                	.insn	2, 0x3020
 5a8:	0078                	.insn	2, 0x0078
 5aa:	0000                	.insn	2, 0x0000
 5ac:	202c                	.insn	2, 0x202c
 5ae:	6556                	.insn	2, 0x6556
 5b0:	696c                	.insn	2, 0x696c
 5b2:	616e6963          	bltu	t3,s6,bc4 <_idata_start+0x4ac>
 5b6:	203a                	.insn	2, 0x203a
 5b8:	0000                	.insn	2, 0x0000
 5ba:	0000                	.insn	2, 0x0000
 5bc:	7520                	.insn	2, 0x7520
 5be:	6f7a                	.insn	2, 0x6f7a
 5c0:	6172                	.insn	2, 0x6172
 5c2:	0d2e616b          	.insn	4, 0x0d2e616b
 5c6:	000a                	.insn	2, 0x000a
 5c8:	7250                	.insn	2, 0x7250
 5ca:	7469                	.insn	2, 0x7469
 5cc:	7369                	.insn	2, 0x7369
 5ce:	696e                	.insn	2, 0x696e
 5d0:	6574                	.insn	2, 0x6574
 5d2:	4b20                	.insn	2, 0x4b20
 5d4:	5945                	.insn	2, 0x5945
 5d6:	2031                	.insn	2, 0x2031
 5d8:	616e                	.insn	2, 0x616e
 5da:	4620                	.insn	2, 0x4620
 5dc:	4750                	.insn	2, 0x4750
 5de:	2041                	.insn	2, 0x2041
 5e0:	617a                	.insn	2, 0x617a
 5e2:	6120                	.insn	2, 0x6120
 5e4:	7a69766b          	.insn	4, 0x7a69766b
 5e8:	6369                	.insn	2, 0x6369
 5ea:	6a69                	.insn	2, 0x6a69
 5ec:	2e75                	.insn	2, 0x2e75
 5ee:	2e2e                	.insn	2, 0x2e2e
 5f0:	0a0d                	.insn	2, 0x0a0d
 5f2:	0000                	.insn	2, 0x0000
 5f4:	7250                	.insn	2, 0x7250
 5f6:	7469                	.insn	2, 0x7469
 5f8:	7369                	.insn	2, 0x7369
 5fa:	756e                	.insn	2, 0x756e
 5fc:	2074                	.insn	2, 0x2074
 5fe:	3159454b          	.insn	4, 0x3159454b
 602:	0d2e                	.insn	2, 0x0d2e
 604:	000a                	.insn	2, 0x000a
 606:	0000                	.insn	2, 0x0000
 608:	4441                	.insn	2, 0x4441
 60a:	50203a43          	.insn	4, 0x50203a43
 60e:	6972                	.insn	2, 0x6972
 610:	7270                	.insn	2, 0x7270
 612:	6d65                	.insn	2, 0x6d65
 614:	2e61                	.insn	2, 0x2e61
 616:	2e2e                	.insn	2, 0x2e2e
 618:	0a0d                	.insn	2, 0x0a0d
 61a:	0000                	.insn	2, 0x0000
 61c:	4441                	.insn	2, 0x4441
 61e:	41203a43          	.insn	4, 0x41203a43
 622:	7a69766b          	.insn	4, 0x7a69766b
 626:	6369                	.insn	2, 0x6369
 628:	6a69                	.insn	2, 0x6a69
 62a:	2061                	.insn	2, 0x2061
 62c:	617a                	.insn	2, 0x617a
 62e:	6f70                	.insn	2, 0x6f70
 630:	61746563          	bltu	s0,s7,c3a <_idata_start+0x522>
 634:	2e2e                	.insn	2, 0x2e2e
 636:	0d2e                	.insn	2, 0x0d2e
 638:	000a                	.insn	2, 0x000a
 63a:	0000                	.insn	2, 0x0000
 63c:	4441                	.insn	2, 0x4441
 63e:	43203a43          	.insn	4, 0x43203a43
 642:	6b65                	.insn	2, 0x6b65
 644:	6d61                	.insn	2, 0x6d61
 646:	6f64206f          	j	42d3c <_idata_start+0x42624>
 64a:	656e                	.insn	2, 0x656e
 64c:	2e2e                	.insn	2, 0x2e2e
 64e:	0d2e                	.insn	2, 0x0d2e
 650:	000a                	.insn	2, 0x000a
 652:	0000                	.insn	2, 0x0000
 654:	4441                	.insn	2, 0x4441
 656:	42203a43          	.insn	4, 0x42203a43
 65a:	6661                	.insn	2, 0x6661
 65c:	7265                	.insn	2, 0x7265
 65e:	7020                	.insn	2, 0x7020
 660:	6e75706f          	j	58546 <_idata_start+0x57e2e>
 664:	656a                	.insn	2, 0x656a
 666:	2e6e                	.insn	2, 0x2e6e
 668:	5020                	.insn	2, 0x5020
 66a:	65726b6f          	jal	s6,274c0 <_idata_start+0x26da8>
 66e:	206d6563          	bltu	s10,t1,878 <_idata_start+0x160>
 672:	7274                	.insn	2, 0x7274
 674:	6e61                	.insn	2, 0x6e61
 676:	72656673          	.insn	4, 0x72656673
 67a:	2e2e                	.insn	2, 0x2e2e
 67c:	0d2e                	.insn	2, 0x0d2e
 67e:	000a                	.insn	2, 0x000a
 680:	3d3d                	.insn	2, 0x3d3d
 682:	203d                	.insn	2, 0x203d
 684:	5242                	.insn	2, 0x5242
 686:	4d41                	.insn	2, 0x4d41
 688:	545f 4152 534e      	.insn	6, 0x534e4152545f
 68e:	4546                	.insn	2, 0x4546
 690:	5f52                	.insn	2, 0x5f52
 692:	52415453          	.insn	4, 0x52415453
 696:	2054                	.insn	2, 0x2054
 698:	3d3d                	.insn	2, 0x3d3d
 69a:	0d3d                	.insn	2, 0x0d3d
 69c:	000a                	.insn	2, 0x000a
 69e:	0000                	.insn	2, 0x0000
 6a0:	3d3d                	.insn	2, 0x3d3d
 6a2:	203d                	.insn	2, 0x203d
 6a4:	5242                	.insn	2, 0x5242
 6a6:	4d41                	.insn	2, 0x4d41
 6a8:	545f 4152 534e      	.insn	6, 0x534e4152545f
 6ae:	4546                	.insn	2, 0x4546
 6b0:	5f52                	.insn	2, 0x5f52
 6b2:	4e45                	.insn	2, 0x4e45
 6b4:	2044                	.insn	2, 0x2044
 6b6:	3d3d                	.insn	2, 0x3d3d
 6b8:	0d3d                	.insn	2, 0x0d3d
 6ba:	000a                	.insn	2, 0x000a
 6bc:	4441                	.insn	2, 0x4441
 6be:	54203a43          	.insn	4, 0x54203a43
 6c2:	6172                	.insn	2, 0x6172
 6c4:	736e                	.insn	2, 0x736e
 6c6:	6566                	.insn	2, 0x6566
 6c8:	2072                	.insn	2, 0x2072
 6ca:	617a                	.insn	2, 0x617a
 6cc:	7276                	.insn	2, 0x7276
 6ce:	2e6e6573          	.insn	4, 0x2e6e6573
 6d2:	0a0d                	.insn	2, 0x0a0d
 6d4:	0000                	.insn	2, 0x0000
 6d6:	0000                	.insn	2, 0x0000
 6d8:	65727053          	.insn	4, 0x65727053
 6dc:	616d                	.insn	2, 0x616d
 6de:	206e                	.insn	2, 0x206e
 6e0:	617a                	.insn	2, 0x617a
 6e2:	6e20                	.insn	2, 0x6e20
 6e4:	2075766f          	jal	a2,580ea <_idata_start+0x579d2>
 6e8:	6b61                	.insn	2, 0x6b61
 6ea:	6976                	.insn	2, 0x6976
 6ec:	697a                	.insn	2, 0x697a
 6ee:	756a6963          	bltu	s4,s6,e40 <_idata_start+0x728>
 6f2:	2820                	.insn	2, 0x2820
 6f4:	616b6543          	.insn	4, 0x616b6543
 6f8:	206d                	.insn	2, 0x206d
 6fa:	3159454b          	.insn	4, 0x3159454b
 6fe:	2e29                	.insn	2, 0x2e29
 700:	0a0d                	.insn	2, 0x0a0d
 702:	0000                	.insn	2, 0x0000
 704:	3130                	.insn	2, 0x3130
 706:	3332                	.insn	2, 0x3332
 708:	3534                	.insn	2, 0x3534
 70a:	3736                	.insn	2, 0x3736
 70c:	3938                	.insn	2, 0x3938
 70e:	4241                	.insn	2, 0x4241
 710:	46454443          	.insn	4, 0x46454443
 714:	0000                	.insn	2, 0x0000
	...
