
/mnt/e/GoogleDrive/Projekti/ChiliChips/uberClock/3.miniac/3.build/sw_build/main.elf:     file format elf32-littleriscv


Disassembly of section .text:

00000000 <_boot_crt>:
   0:	00000517          	auipc	a0,0x0
   4:	66850513          	addi	a0,a0,1640 # 668 <_idata_start>
   8:	10000597          	auipc	a1,0x10000
   c:	ff858593          	addi	a1,a1,-8 # 10000000 <heap_memory>
  10:	10000617          	auipc	a2,0x10000
  14:	ff060613          	addi	a2,a2,-16 # 10000000 <heap_memory>
  18:	00c5dc63          	bge	a1,a2,30 <end_copy_idata>

0000001c <loop_copy_idata>:
  1c:	00052683          	lw	a3,0(a0)
  20:	00d5a023          	sw	a3,0(a1)
  24:	00450513          	addi	a0,a0,4
  28:	00458593          	addi	a1,a1,4
  2c:	fec5c8e3          	blt	a1,a2,1c <loop_copy_idata>

00000030 <end_copy_idata>:
  30:	10000517          	auipc	a0,0x10000
  34:	fd050513          	addi	a0,a0,-48 # 10000000 <heap_memory>
  38:	00418593          	addi	a1,gp,4 # 10000804 <_bss_end>
  3c:	00b55863          	bge	a0,a1,4c <end_clear_bss>

00000040 <loop_clear_bss>:
  40:	00052023          	sw	zero,0(a0)
  44:	00450513          	addi	a0,a0,4
  48:	feb54ce3          	blt	a0,a1,40 <loop_clear_bss>

0000004c <end_clear_bss>:
  4c:	10008117          	auipc	sp,0x10008
  50:	fb410113          	addi	sp,sp,-76 # 10008000 <_stack_start>
  54:	10000197          	auipc	gp,0x10000
  58:	7ac18193          	addi	gp,gp,1964 # 10000800 <heap_memory_used>
  5c:	00a54533          	xor	a0,a0,a0
  60:	00b5c5b3          	xor	a1,a1,a1
  64:	00c64633          	xor	a2,a2,a2
  68:	1bc000ef          	jal	224 <main>

0000006c <loop_forever>:
  6c:	0000006f          	j	6c <loop_forever>

00000070 <uart_send_char>:
  70:	00052783          	lw	a5,0(a0)
  74:	0087a783          	lw	a5,8(a5)
  78:	0007a783          	lw	a5,0(a5)
  7c:	0007a783          	lw	a5,0(a5)
  80:	fe07c8e3          	bltz	a5,70 <uart_send_char>
  84:	00052783          	lw	a5,0(a0)
  88:	0087a783          	lw	a5,8(a5)
  8c:	0007a783          	lw	a5,0(a5)
  90:	00b78023          	sb	a1,0(a5)
  94:	00008067          	ret

00000098 <uart_send_dec>:
  98:	0a058a63          	beqz	a1,14c <uart_send_dec+0xb4>
  9c:	fe010113          	addi	sp,sp,-32
  a0:	00912a23          	sw	s1,20(sp)
  a4:	00058493          	mv	s1,a1
  a8:	01212823          	sw	s2,16(sp)
  ac:	00a00593          	li	a1,10
  b0:	00050913          	mv	s2,a0
  b4:	00048513          	mv	a0,s1
  b8:	00812c23          	sw	s0,24(sp)
  bc:	00112e23          	sw	ra,28(sp)
  c0:	01312623          	sw	s3,12(sp)
  c4:	01412423          	sw	s4,8(sp)
  c8:	4a4000ef          	jal	56c <__hidden___udivsi3>
  cc:	01051513          	slli	a0,a0,0x10
  d0:	01055513          	srli	a0,a0,0x10
  d4:	00100413          	li	s0,1
  d8:	06857e63          	bgeu	a0,s0,154 <uart_send_dec+0xbc>
  dc:	00900a13          	li	s4,9
  e0:	00040593          	mv	a1,s0
  e4:	00048513          	mv	a0,s1
  e8:	484000ef          	jal	56c <__hidden___udivsi3>
  ec:	03050593          	addi	a1,a0,48
  f0:	0ff5f593          	zext.b	a1,a1
  f4:	00090513          	mv	a0,s2
  f8:	f79ff0ef          	jal	70 <uart_send_char>
  fc:	00040593          	mv	a1,s0
 100:	00048513          	mv	a0,s1
 104:	4b0000ef          	jal	5b4 <__umodsi3>
 108:	01051493          	slli	s1,a0,0x10
 10c:	00a00593          	li	a1,10
 110:	00040513          	mv	a0,s0
 114:	458000ef          	jal	56c <__hidden___udivsi3>
 118:	00040993          	mv	s3,s0
 11c:	01051413          	slli	s0,a0,0x10
 120:	0104d493          	srli	s1,s1,0x10
 124:	01045413          	srli	s0,s0,0x10
 128:	fb3a6ce3          	bltu	s4,s3,e0 <uart_send_dec+0x48>
 12c:	01c12083          	lw	ra,28(sp)
 130:	01812403          	lw	s0,24(sp)
 134:	01412483          	lw	s1,20(sp)
 138:	01012903          	lw	s2,16(sp)
 13c:	00c12983          	lw	s3,12(sp)
 140:	00812a03          	lw	s4,8(sp)
 144:	02010113          	addi	sp,sp,32
 148:	00008067          	ret
 14c:	03000593          	li	a1,48
 150:	f21ff06f          	j	70 <uart_send_char>
 154:	00241793          	slli	a5,s0,0x2
 158:	00f40433          	add	s0,s0,a5
 15c:	00141413          	slli	s0,s0,0x1
 160:	01041413          	slli	s0,s0,0x10
 164:	01045413          	srli	s0,s0,0x10
 168:	f71ff06f          	j	d8 <uart_send_dec+0x40>

0000016c <uart_send>:
 16c:	ff010113          	addi	sp,sp,-16
 170:	00812423          	sw	s0,8(sp)
 174:	00912223          	sw	s1,4(sp)
 178:	00112623          	sw	ra,12(sp)
 17c:	00050493          	mv	s1,a0
 180:	00058413          	mv	s0,a1
 184:	00044583          	lbu	a1,0(s0)
 188:	00059c63          	bnez	a1,1a0 <uart_send+0x34>
 18c:	00c12083          	lw	ra,12(sp)
 190:	00812403          	lw	s0,8(sp)
 194:	00412483          	lw	s1,4(sp)
 198:	01010113          	addi	sp,sp,16
 19c:	00008067          	ret
 1a0:	00048513          	mv	a0,s1
 1a4:	00140413          	addi	s0,s0,1
 1a8:	ec9ff0ef          	jal	70 <uart_send_char>
 1ac:	fd9ff06f          	j	184 <uart_send+0x18>

000001b0 <malloc>:
 1b0:	0001a703          	lw	a4,0(gp) # 10000800 <heap_memory_used>
 1b4:	100007b7          	lui	a5,0x10000
 1b8:	00078793          	mv	a5,a5
 1bc:	00f707b3          	add	a5,a4,a5
 1c0:	00a70733          	add	a4,a4,a0
 1c4:	00e1a023          	sw	a4,0(gp) # 10000800 <heap_memory_used>
 1c8:	000016b7          	lui	a3,0x1
 1cc:	80068693          	addi	a3,a3,-2048 # 800 <_idata_start+0x198>
 1d0:	00e6d463          	bge	a3,a4,1d8 <malloc+0x28>
 1d4:	00100073          	ebreak
 1d8:	00078513          	mv	a0,a5
 1dc:	00008067          	ret

000001e0 <memset>:
 1e0:	0ff5f593          	zext.b	a1,a1
 1e4:	00000793          	li	a5,0
 1e8:	00c79463          	bne	a5,a2,1f0 <memset+0x10>
 1ec:	00008067          	ret
 1f0:	00f50733          	add	a4,a0,a5
 1f4:	00b70023          	sb	a1,0(a4)
 1f8:	00178793          	addi	a5,a5,1 # 10000001 <heap_memory+0x1>
 1fc:	fedff06f          	j	1e8 <memset+0x8>

00000200 <memcpy>:
 200:	00000793          	li	a5,0
 204:	00c79463          	bne	a5,a2,20c <memcpy+0xc>
 208:	00008067          	ret
 20c:	00f58733          	add	a4,a1,a5
 210:	00074683          	lbu	a3,0(a4)
 214:	00f50733          	add	a4,a0,a5
 218:	00178793          	addi	a5,a5,1
 21c:	00d70023          	sb	a3,0(a4)
 220:	fe5ff06f          	j	204 <memcpy+0x4>

00000224 <main>:
 224:	fb010113          	addi	sp,sp,-80
 228:	01000513          	li	a0,16
 22c:	04112623          	sw	ra,76(sp)
 230:	04812423          	sw	s0,72(sp)
 234:	04912223          	sw	s1,68(sp)
 238:	03312e23          	sw	s3,60(sp)
 23c:	03412c23          	sw	s4,56(sp)
 240:	03512a23          	sw	s5,52(sp)
 244:	03612823          	sw	s6,48(sp)
 248:	05212023          	sw	s2,64(sp)
 24c:	03712623          	sw	s7,44(sp)
 250:	03812423          	sw	s8,40(sp)
 254:	f5dff0ef          	jal	1b0 <malloc>
 258:	00050413          	mv	s0,a0
 25c:	01000513          	li	a0,16
 260:	f51ff0ef          	jal	1b0 <malloc>
 264:	00050493          	mv	s1,a0
 268:	00400513          	li	a0,4
 26c:	f45ff0ef          	jal	1b0 <malloc>
 270:	200007b7          	lui	a5,0x20000
 274:	00f52023          	sw	a5,0(a0)
 278:	00a4a023          	sw	a0,0(s1)
 27c:	00400513          	li	a0,4
 280:	f31ff0ef          	jal	1b0 <malloc>
 284:	200007b7          	lui	a5,0x20000
 288:	00478793          	addi	a5,a5,4 # 20000004 <_stack_start+0xfff8004>
 28c:	00f52023          	sw	a5,0(a0)
 290:	00a4a223          	sw	a0,4(s1)
 294:	00400513          	li	a0,4
 298:	f19ff0ef          	jal	1b0 <malloc>
 29c:	200007b7          	lui	a5,0x20000
 2a0:	00878793          	addi	a5,a5,8 # 20000008 <_stack_start+0xfff8008>
 2a4:	00f52023          	sw	a5,0(a0)
 2a8:	00a4a423          	sw	a0,8(s1)
 2ac:	00400513          	li	a0,4
 2b0:	f01ff0ef          	jal	1b0 <malloc>
 2b4:	200007b7          	lui	a5,0x20000
 2b8:	00c78793          	addi	a5,a5,12 # 2000000c <_stack_start+0xfff800c>
 2bc:	00f52023          	sw	a5,0(a0)
 2c0:	00a4a623          	sw	a0,12(s1)
 2c4:	00942023          	sw	s1,0(s0)
 2c8:	00400513          	li	a0,4
 2cc:	ee5ff0ef          	jal	1b0 <malloc>
 2d0:	200007b7          	lui	a5,0x20000
 2d4:	01078793          	addi	a5,a5,16 # 20000010 <_stack_start+0xfff8010>
 2d8:	00f52023          	sw	a5,0(a0)
 2dc:	00a42223          	sw	a0,4(s0)
 2e0:	00400513          	li	a0,4
 2e4:	ecdff0ef          	jal	1b0 <malloc>
 2e8:	200007b7          	lui	a5,0x20000
 2ec:	01478793          	addi	a5,a5,20 # 20000014 <_stack_start+0xfff8014>
 2f0:	00f52023          	sw	a5,0(a0)
 2f4:	00a42423          	sw	a0,8(s0)
 2f8:	00400513          	li	a0,4
 2fc:	eb5ff0ef          	jal	1b0 <malloc>
 300:	200007b7          	lui	a5,0x20000
 304:	01878793          	addi	a5,a5,24 # 20000018 <_stack_start+0xfff8018>
 308:	00f52023          	sw	a5,0(a0)
 30c:	00442783          	lw	a5,4(s0)
 310:	00a42623          	sw	a0,12(s0)
 314:	0007a703          	lw	a4,0(a5)
 318:	61800593          	li	a1,1560
 31c:	00040513          	mv	a0,s0
 320:	00072783          	lw	a5,0(a4)
 324:	01200a93          	li	s5,18
 328:	00a00993          	li	s3,10
 32c:	2007e793          	ori	a5,a5,512
 330:	00f72023          	sw	a5,0(a4)
 334:	00442703          	lw	a4,4(s0)
 338:	00442783          	lw	a5,4(s0)
 33c:	00d00a13          	li	s4,13
 340:	00072683          	lw	a3,0(a4)
 344:	0007a783          	lw	a5,0(a5)
 348:	07f00b13          	li	s6,127
 34c:	0007a703          	lw	a4,0(a5)
 350:	0006a783          	lw	a5,0(a3)
 354:	00177713          	andi	a4,a4,1
 358:	00871713          	slli	a4,a4,0x8
 35c:	eff7f793          	andi	a5,a5,-257
 360:	00e7e7b3          	or	a5,a5,a4
 364:	00f6a023          	sw	a5,0(a3)
 368:	e05ff0ef          	jal	16c <uart_send>
 36c:	00042783          	lw	a5,0(s0)
 370:	0007a783          	lw	a5,0(a5)
 374:	0007a783          	lw	a5,0(a5)
 378:	0007a583          	lw	a1,0(a5)
 37c:	fe05d8e3          	bgez	a1,36c <main+0x148>
 380:	0ff5f793          	zext.b	a5,a1
 384:	ff5784e3          	beq	a5,s5,36c <main+0x148>
 388:	0ff5f593          	zext.b	a1,a1
 38c:	00b10023          	sb	a1,0(sp)
 390:	fd358ee3          	beq	a1,s3,36c <main+0x148>
 394:	00000493          	li	s1,0
 398:	00010913          	mv	s2,sp
 39c:	07458663          	beq	a1,s4,408 <_HEAP_SIZE+0x8>
 3a0:	00800c13          	li	s8,8
 3a4:	01f00b93          	li	s7,31
 3a8:	01858463          	beq	a1,s8,3b0 <main+0x18c>
 3ac:	1b659263          	bne	a1,s6,550 <_HEAP_SIZE+0x150>
 3b0:	02905863          	blez	s1,3e0 <main+0x1bc>
 3b4:	00800593          	li	a1,8
 3b8:	00040513          	mv	a0,s0
 3bc:	cb5ff0ef          	jal	70 <uart_send_char>
 3c0:	02000593          	li	a1,32
 3c4:	00040513          	mv	a0,s0
 3c8:	ca9ff0ef          	jal	70 <uart_send_char>
 3cc:	00800593          	li	a1,8
 3d0:	00040513          	mv	a0,s0
 3d4:	fff90913          	addi	s2,s2,-1
 3d8:	fff48493          	addi	s1,s1,-1
 3dc:	c95ff0ef          	jal	70 <uart_send_char>
 3e0:	00042783          	lw	a5,0(s0)
 3e4:	0007a783          	lw	a5,0(a5)
 3e8:	0007a783          	lw	a5,0(a5)
 3ec:	0007a583          	lw	a1,0(a5)
 3f0:	fe05d8e3          	bgez	a1,3e0 <main+0x1bc>
 3f4:	03748663          	beq	s1,s7,420 <_HEAP_SIZE+0x20>
 3f8:	0ff5f593          	zext.b	a1,a1
 3fc:	00b90023          	sb	a1,0(s2)
 400:	03358063          	beq	a1,s3,420 <_HEAP_SIZE+0x20>
 404:	fb4592e3          	bne	a1,s4,3a8 <main+0x184>
 408:	00d00593          	li	a1,13
 40c:	00040513          	mv	a0,s0
 410:	c61ff0ef          	jal	70 <uart_send_char>
 414:	00a00593          	li	a1,10
 418:	00040513          	mv	a0,s0
 41c:	c55ff0ef          	jal	70 <uart_send_char>
 420:	00090023          	sb	zero,0(s2)
 424:	0ff4f493          	zext.b	s1,s1
 428:	f40482e3          	beqz	s1,36c <main+0x148>
 42c:	62800593          	li	a1,1576
 430:	00040513          	mv	a0,s0
 434:	d39ff0ef          	jal	16c <uart_send>
 438:	00842783          	lw	a5,8(s0)
 43c:	00c00493          	li	s1,12
 440:	0007a783          	lw	a5,0(a5)
 444:	65400913          	li	s2,1620
 448:	ffc00993          	li	s3,-4
 44c:	0027da03          	lhu	s4,2(a5)
 450:	009a57b3          	srl	a5,s4,s1
 454:	00f7f793          	andi	a5,a5,15
 458:	00f907b3          	add	a5,s2,a5
 45c:	0007c583          	lbu	a1,0(a5)
 460:	00040513          	mv	a0,s0
 464:	ffc48493          	addi	s1,s1,-4
 468:	c09ff0ef          	jal	70 <uart_send_char>
 46c:	ff3492e3          	bne	s1,s3,450 <_HEAP_SIZE+0x50>
 470:	63400593          	li	a1,1588
 474:	00040513          	mv	a0,s0
 478:	cf5ff0ef          	jal	16c <uart_send>
 47c:	00842783          	lw	a5,8(s0)
 480:	00c00493          	li	s1,12
 484:	ffc00993          	li	s3,-4
 488:	0007a783          	lw	a5,0(a5)
 48c:	0007da03          	lhu	s4,0(a5)
 490:	009a57b3          	srl	a5,s4,s1
 494:	00f7f793          	andi	a5,a5,15
 498:	00f907b3          	add	a5,s2,a5
 49c:	0007c583          	lbu	a1,0(a5)
 4a0:	00040513          	mv	a0,s0
 4a4:	ffc48493          	addi	s1,s1,-4
 4a8:	bc9ff0ef          	jal	70 <uart_send_char>
 4ac:	ff3492e3          	bne	s1,s3,490 <_HEAP_SIZE+0x90>
 4b0:	00040513          	mv	a0,s0
 4b4:	64400593          	li	a1,1604
 4b8:	cb5ff0ef          	jal	16c <uart_send>
 4bc:	00c42783          	lw	a5,12(s0)
 4c0:	00040513          	mv	a0,s0
 4c4:	0007a783          	lw	a5,0(a5)
 4c8:	0037c583          	lbu	a1,3(a5)
 4cc:	bcdff0ef          	jal	98 <uart_send_dec>
 4d0:	00040513          	mv	a0,s0
 4d4:	02e00593          	li	a1,46
 4d8:	b99ff0ef          	jal	70 <uart_send_char>
 4dc:	00c42783          	lw	a5,12(s0)
 4e0:	00040513          	mv	a0,s0
 4e4:	0007a783          	lw	a5,0(a5)
 4e8:	0027c583          	lbu	a1,2(a5)
 4ec:	badff0ef          	jal	98 <uart_send_dec>
 4f0:	00040513          	mv	a0,s0
 4f4:	02e00593          	li	a1,46
 4f8:	b79ff0ef          	jal	70 <uart_send_char>
 4fc:	00c42783          	lw	a5,12(s0)
 500:	00040513          	mv	a0,s0
 504:	0007a783          	lw	a5,0(a5)
 508:	0007d583          	lhu	a1,0(a5)
 50c:	b8dff0ef          	jal	98 <uart_send_dec>
 510:	00040513          	mv	a0,s0
 514:	62400593          	li	a1,1572
 518:	c55ff0ef          	jal	16c <uart_send>
 51c:	04c12083          	lw	ra,76(sp)
 520:	04812403          	lw	s0,72(sp)
 524:	04412483          	lw	s1,68(sp)
 528:	04012903          	lw	s2,64(sp)
 52c:	03c12983          	lw	s3,60(sp)
 530:	03812a03          	lw	s4,56(sp)
 534:	03412a83          	lw	s5,52(sp)
 538:	03012b03          	lw	s6,48(sp)
 53c:	02c12b83          	lw	s7,44(sp)
 540:	02812c03          	lw	s8,40(sp)
 544:	00000513          	li	a0,0
 548:	05010113          	addi	sp,sp,80
 54c:	00008067          	ret
 550:	00040513          	mv	a0,s0
 554:	b1dff0ef          	jal	70 <uart_send_char>
 558:	00190913          	addi	s2,s2,1
 55c:	00148493          	addi	s1,s1,1
 560:	e81ff06f          	j	3e0 <main+0x1bc>

00000564 <__divsi3>:
 564:	06054063          	bltz	a0,5c4 <__umodsi3+0x10>
 568:	0605c663          	bltz	a1,5d4 <__umodsi3+0x20>

0000056c <__hidden___udivsi3>:
 56c:	00058613          	mv	a2,a1
 570:	00050593          	mv	a1,a0
 574:	fff00513          	li	a0,-1
 578:	02060c63          	beqz	a2,5b0 <__hidden___udivsi3+0x44>
 57c:	00100693          	li	a3,1
 580:	00b67a63          	bgeu	a2,a1,594 <__hidden___udivsi3+0x28>
 584:	00c05863          	blez	a2,594 <__hidden___udivsi3+0x28>
 588:	00161613          	slli	a2,a2,0x1
 58c:	00169693          	slli	a3,a3,0x1
 590:	feb66ae3          	bltu	a2,a1,584 <__hidden___udivsi3+0x18>
 594:	00000513          	li	a0,0
 598:	00c5e663          	bltu	a1,a2,5a4 <__hidden___udivsi3+0x38>
 59c:	40c585b3          	sub	a1,a1,a2
 5a0:	00d56533          	or	a0,a0,a3
 5a4:	0016d693          	srli	a3,a3,0x1
 5a8:	00165613          	srli	a2,a2,0x1
 5ac:	fe0696e3          	bnez	a3,598 <__hidden___udivsi3+0x2c>
 5b0:	00008067          	ret

000005b4 <__umodsi3>:
 5b4:	00008293          	mv	t0,ra
 5b8:	fb5ff0ef          	jal	56c <__hidden___udivsi3>
 5bc:	00058513          	mv	a0,a1
 5c0:	00028067          	jr	t0
 5c4:	40a00533          	neg	a0,a0
 5c8:	00b04863          	bgtz	a1,5d8 <__umodsi3+0x24>
 5cc:	40b005b3          	neg	a1,a1
 5d0:	f9dff06f          	j	56c <__hidden___udivsi3>
 5d4:	40b005b3          	neg	a1,a1
 5d8:	00008293          	mv	t0,ra
 5dc:	f91ff0ef          	jal	56c <__hidden___udivsi3>
 5e0:	40a00533          	neg	a0,a0
 5e4:	00028067          	jr	t0

000005e8 <__modsi3>:
 5e8:	00008293          	mv	t0,ra
 5ec:	0005ca63          	bltz	a1,600 <__modsi3+0x18>
 5f0:	00054c63          	bltz	a0,608 <__modsi3+0x20>
 5f4:	f79ff0ef          	jal	56c <__hidden___udivsi3>
 5f8:	00058513          	mv	a0,a1
 5fc:	00028067          	jr	t0
 600:	40b005b3          	neg	a1,a1
 604:	fe0558e3          	bgez	a0,5f4 <__modsi3+0xc>
 608:	40a00533          	neg	a0,a0
 60c:	f61ff0ef          	jal	56c <__hidden___udivsi3>
 610:	40b00533          	neg	a0,a1
 614:	00028067          	jr	t0
 618:	6548                	.insn	2, 0x6548
 61a:	6c6c                	.insn	2, 0x6c6c
 61c:	6f77206f          	j	73512 <_idata_start+0x72eaa>
 620:	6c72                	.insn	2, 0x6c72
 622:	2164                	.insn	2, 0x2164
 624:	0a0d                	.insn	2, 0x0a0d
 626:	0000                	.insn	2, 0x
 628:	4556                	.insn	2, 0x4556
 62a:	444e                	.insn	2, 0x444e
 62c:	2020524f          	.insn	4, 0x2020524f
 630:	203d                	.insn	2, 0x203d
 632:	0000                	.insn	2, 0x
 634:	0a0d                	.insn	2, 0x0a0d
 636:	5250                	.insn	2, 0x5250
 638:	4355444f          	.insn	4, 0x4355444f
 63c:	2054                	.insn	2, 0x2054
 63e:	203d                	.insn	2, 0x203d
 640:	0000                	.insn	2, 0x
 642:	0000                	.insn	2, 0x
 644:	0a0d                	.insn	2, 0x0a0d
 646:	4556                	.insn	2, 0x4556
 648:	5352                	.insn	2, 0x5352
 64a:	4f49                	.insn	2, 0x4f49
 64c:	204e                	.insn	2, 0x204e
 64e:	203d                	.insn	2, 0x203d
 650:	0076                	.insn	2, 0x0076
 652:	0000                	.insn	2, 0x
 654:	3130                	.insn	2, 0x3130
 656:	3332                	.insn	2, 0x3332
 658:	3534                	.insn	2, 0x3534
 65a:	3736                	.insn	2, 0x3736
 65c:	3938                	.insn	2, 0x3938
 65e:	4241                	.insn	2, 0x4241
 660:	46454443          	.insn	4, 0x46454443
 664:	0000                	.insn	2, 0x
	...
